; Function Attrs: mustprogress nofree norecurse nosync nounwind willreturn memory(readwrite, inaccessiblemem: none) uwtable
define void @ulist_reset_keyword_values_iterator_77(ptr noundef readonly captures(none) %0, ptr noundef readonly captures(none) %1) local_unnamed_addr #10 {
  %3 = load i32, ptr %1, align 4, !tbaa !3
  %4 = icmp slt i32 %3, 1
  br i1 %4, label %5, label %ulist_resetList_77.exit

5:                                                ; preds = %2
  %6 = getelementptr inbounds nuw i8, ptr %0, i64 8
  %7 = load ptr, ptr %6, align 8, !tbaa !25
  %.not.i = icmp eq ptr %7, null
  br i1 %.not.i, label %ulist_resetList_77.exit, label %8

8:                                                ; preds = %5
  %9 = getelementptr inbounds nuw i8, ptr %7, i64 8
  %10 = load ptr, ptr %9, align 8, !tbaa !15
  store ptr %10, ptr %7, align 8, !tbaa !23
  br label %ulist_resetList_77.exit

ulist_resetList_77.exit:                          ; preds = %8, %5, %2
  ret void
}